; Function Attrs: mustprogress nofree norecurse nosync nounwind willreturn memory(read, inaccessiblemem: none) uwtable
define dso_local noundef range(i32 0, 7) i32 @_ZNK5clang19NestedNameSpecifier7getKindEv(ptr nocapture noundef nonnull readonly align 8 dereferenceable(24) %0) local_unnamed_addr #2 align 2 {
  %2 = getelementptr inbounds nuw i8, ptr %0, i64 16
  %3 = load ptr, ptr %2, align 8
  %.not = icmp eq ptr %3, null
  br i1 %.not, label %20, label %4

4:                                                ; preds = %1
  %5 = getelementptr inbounds nuw i8, ptr %0, i64 8
  %.0.copyload.i.i.i = load i64, ptr %5, align 8
  %6 = trunc i64 %.0.copyload.i.i.i to i32
  %7 = lshr i32 %6, 1
  %8 = and i32 %7, 3
  switch i32 %8, label %default.unreachable [
    i32 0, label %20
    i32 1, label %9
    i32 2, label %18
    i32 3, label %19
  ]

9:                                                ; preds = %4
  %10 = getelementptr inbounds nuw i8, ptr %3, i64 28
  %11 = load i32, ptr %10, align 4
  %12 = and i32 %11, 127
  %13 = add nsw i32 %12, -56
  %14 = icmp ult i32 %13, 3
  br i1 %14, label %20, label %15

15:                                               ; preds = %9
  %16 = icmp eq i32 %12, 21
  %17 = select i1 %16, i32 1, i32 2
  br label %20

18:                                               ; preds = %4
  br label %20

19:                                               ; preds = %4
  br label %20

default.unreachable:                              ; preds = %4
  unreachable

20:                                               ; preds = %9, %4, %1, %19, %18, %15
  %.0 = phi i32 [ 4, %19 ], [ 3, %18 ], [ %17, %15 ], [ 5, %1 ], [ %8, %4 ], [ 6, %9 ]
  ret i32 %.0
}